; Function Attrs: mustprogress uwtable
define dso_local void @_ZN11LinePrinter13PrintOrBufferEPKcm(ptr noundef nonnull align 8 dereferenceable(80) %0, ptr noundef %1, i64 noundef %2) local_unnamed_addr #0 align 2 personality ptr @__gxx_personality_v0 {
  %4 = getelementptr inbounds nuw i8, ptr %0, i64 3
  %5 = load i8, ptr %4, align 1, !tbaa !15, !range !22, !noundef !24
  %6 = trunc nuw i8 %5 to i1
  br i1 %6, label %7, label %15

7:                                                ; preds = %3
  %8 = getelementptr inbounds nuw i8, ptr %0, i64 56
  %9 = load i64, ptr %8, align 8, !tbaa !17
  %10 = sub i64 4611686018427387903, %9
  %11 = icmp ult i64 %10, %2
  br i1 %11, label %12, label %_ZNSt7__cxx1112basic_stringIcSt11char_traitsIcESaIcEE6appendEPKcm.exit

12:                                               ; preds = %7
  tail call void @_ZSt20__throw_length_errorPKc(ptr noundef nonnull @.str.11) #14
  unreachable

_ZNSt7__cxx1112basic_stringIcSt11char_traitsIcESaIcEE6appendEPKcm.exit: ; preds = %7
  %13 = getelementptr inbounds nuw i8, ptr %0, i64 48
  %14 = tail call noundef nonnull align 8 dereferenceable(32) ptr @_ZNSt7__cxx1112basic_stringIcSt11char_traitsIcESaIcEE9_M_appendEPKcm(ptr noundef nonnull align 8 dereferenceable(32) %13, ptr noundef %1, i64 noundef %2)
  br label %18

15:                                               ; preds = %3
  %16 = load ptr, ptr @stdout, align 8, !tbaa !26
  %17 = tail call i64 @fwrite(ptr noundef %1, i64 noundef 1, i64 noundef %2, ptr noundef %16)
  br label %18

18:                                               ; preds = %15, %_ZNSt7__cxx1112basic_stringIcSt11char_traitsIcESaIcEE6appendEPKcm.exit
  ret void
}